; ModuleID = 'source-C-CXX/6/653.c'
source_filename = "source-C-CXX/6/653.c"
target datalayout = "e-m:e-p270:32:32-p271:32:32-p272:64:64-i64:64-f80:128-n8:16:32:64-S128"
target triple = "x86_64-pc-linux-gnu"

; Function Attrs: nounwind sspstrong uwtable
define dso_local i32 @main() local_unnamed_addr #0 {
  %1 = alloca [256 x i8], align 16
  %2 = alloca [50 x i8], align 16
  %3 = alloca [50 x i8], align 16
  %4 = getelementptr inbounds [50 x i8], [50 x i8]* %3, i64 0, i64 0
  %5 = getelementptr inbounds [256 x i8], [256 x i8]* %1, i64 0, i64 0
  call void @llvm.lifetime.start.p0i8(i64 256, i8* nonnull %5) #6
  %6 = getelementptr inbounds [50 x i8], [50 x i8]* %2, i64 0, i64 0
  call void @llvm.lifetime.start.p0i8(i64 50, i8* nonnull %6) #6
  %7 = getelementptr inbounds [50 x i8], [50 x i8]* %3, i64 0, i64 0
  call void @llvm.lifetime.start.p0i8(i64 50, i8* nonnull %7) #6
  %8 = call i32 (i8*, ...) bitcast (i32 (...)* @gets to i32 (i8*, ...)*)(i8* nonnull %5) #6
  %9 = call i32 (i8*, ...) bitcast (i32 (...)* @gets to i32 (i8*, ...)*)(i8* nonnull %6) #6
  %10 = call i32 (i8*, ...) bitcast (i32 (...)* @gets to i32 (i8*, ...)*)(i8* nonnull %7) #6
  %11 = call i64 @strlen(i8* noundef nonnull %6) #7
  %12 = trunc i64 %11 to i32
  %13 = call i64 @strlen(i8* noundef nonnull %7) #7
  %14 = trunc i64 %13 to i32
  %15 = load i8, i8* %6, align 16
  %16 = load i8, i8* %5, align 16, !tbaa !5
  %17 = icmp ne i8 %16, 0
  %18 = icmp sgt i32 %12, 1
  %19 = select i1 %17, i1 %18, i1 false
  br i1 %19, label %20, label %47

20:                                               ; preds = %0, %36
  %21 = phi i64 [ %37, %36 ], [ 0, %0 ]
  %22 = phi i8 [ %39, %36 ], [ %16, %0 ]
  %23 = icmp eq i8 %22, %15
  br i1 %23, label %27, label %36

24:                                               ; preds = %27
  %25 = trunc i64 %35 to i32
  %26 = icmp slt i32 %25, %12
  br i1 %26, label %27, label %41, !llvm.loop !8

27:                                               ; preds = %20, %24
  %28 = phi i64 [ %35, %24 ], [ 1, %20 ]
  %29 = add nuw nsw i64 %28, %21
  %30 = getelementptr inbounds [256 x i8], [256 x i8]* %1, i64 0, i64 %29
  %31 = load i8, i8* %30, align 1, !tbaa !5
  %32 = getelementptr inbounds [50 x i8], [50 x i8]* %2, i64 0, i64 %28
  %33 = load i8, i8* %32, align 1, !tbaa !5
  %34 = icmp eq i8 %31, %33
  %35 = add nuw i64 %28, 2
  br i1 %34, label %24, label %36

36:                                               ; preds = %27, %20
  %37 = add nuw nsw i64 %21, 1
  %38 = getelementptr inbounds [256 x i8], [256 x i8]* %1, i64 0, i64 %37
  %39 = load i8, i8* %38, align 1, !tbaa !5
  %40 = icmp eq i8 %39, 0
  br i1 %40, label %47, label %20, !llvm.loop !10

41:                                               ; preds = %24
  %42 = icmp sgt i32 %14, 0
  br i1 %42, label %43, label %47

43:                                               ; preds = %41
  %44 = and i64 %21, 4294967295
  %45 = getelementptr [256 x i8], [256 x i8]* %1, i64 0, i64 %44
  %46 = and i64 %13, 4294967295
  call void @llvm.memcpy.p0i8.p0i8.i64(i8* align 1 %45, i8* nonnull align 16 %4, i64 %46, i1 false)
  br label %47

47:                                               ; preds = %36, %43, %0, %41
  %48 = call i32 @puts(i8* nonnull %5)
  call void @llvm.lifetime.end.p0i8(i64 50, i8* nonnull %7) #6
  call void @llvm.lifetime.end.p0i8(i64 50, i8* nonnull %6) #6
  call void @llvm.lifetime.end.p0i8(i64 256, i8* nonnull %5) #6
  ret i32 0
}

; Function Attrs: argmemonly mustprogress nofree nosync nounwind willreturn
declare void @llvm.lifetime.start.p0i8(i64 immarg, i8* nocapture) #1

declare i32 @gets(...) local_unnamed_addr #2

; Function Attrs: argmemonly mustprogress nofree nounwind readonly willreturn
declare i64 @strlen(i8* nocapture) local_unnamed_addr #3

; Function Attrs: nofree nounwind
declare noundef i32 @puts(i8* nocapture noundef readonly) local_unnamed_addr #4

; Function Attrs: argmemonly mustprogress nofree nosync nounwind willreturn
declare void @llvm.lifetime.end.p0i8(i64 immarg, i8* nocapture) #1

; Function Attrs: argmemonly nofree nounwind willreturn
declare void @llvm.memcpy.p0i8.p0i8.i64(i8* noalias nocapture writeonly, i8* noalias nocapture readonly, i64, i1 immarg) #5


!llvm.module.flags = !{!0, !1, !2, !3}
!llvm.ident = !{!4}

!0 = !{i32 1, !"wchar_size", i32 4}
!1 = !{i32 7, !"PIC Level", i32 2}
!2 = !{i32 7, !"PIE Level", i32 2}
!3 = !{i32 7, !"uwtable", i32 1}
!4 = !{!"clang version 13.0.0"}
!5 = !{!6, !6, i64 0}
!6 = !{!"omnipotent char", !7, i64 0}
!7 = !{!"Simple C/C++ TBAA"}
!8 = distinct !{!8, !9}
!9 = !{!"llvm.loop.mustprogress"}
!10 = distinct !{!10, !9}
